target datalayout = "e-m:e-p270:32:32-p271:32:32-p272:64:64-i64:64-i128:128-f80:128-n8:16:32:64-S128"
target triple = "x86_64-pc-linux-gnu"

%struct.AVChannelLayout = type { i32, i32, %union.anon, ptr }
%union.anon = type { i64 }
%struct.AVCodecContext = type { ptr, i32, i32, ptr, i32, i32, ptr, ptr, ptr, i64, i32, i32, ptr, i32, %struct.AVRational, %struct.AVRational, %struct.AVRational, i32, i32, i32, i32, i32, %struct.AVRational, i32, i32, i32, i32, i32, i32, i32, i32, i32, i32, i32, ptr, ptr, i32, float, float, float, float, float, float, float, float, float, i32, i32, i32, i32, i32, i32, i32, i32, i32, i32, i32, i32, ptr, ptr, ptr, i32, i32, i32, i32, i32, i32, i32, i32, i32, i32, %struct.AVChannelLayout, i32, i32, i32, i32, i32, i32, i32, i32, ptr, i32, i32, i32, float, float, i32, i32, i32, i32, i32, ptr, i64, i64, float, float, i32, i32, ptr, ptr, i32, i32, i32, i32, i32, ptr, ptr, ptr, ptr, i32, i32, [8 x i64], i32, i32, i32, i32, i32, i32, i32, ptr, ptr, i32, i32, i32, i32, i32, i32, i32, i32, i32, i32, ptr, ptr, i32, i32, ptr, ptr, ptr, ptr, i32, i32, i64, i32, i32, i64, ptr, i64, ptr, i32, ptr, i32 }
%struct.AVRational = type { i32, i32 }
%struct.G722Context = type { ptr, i32, [1024 x i16], i32, [2 x %struct.G722Band], [2 x ptr], [2 x ptr], [2 x ptr], %struct.G722DSPContext }
%struct.G722Band = type { i16, i32, [2 x i8], i16, [2 x i16], [6 x i32], [6 x i16], i16, i16 }
%struct.G722DSPContext = type { ptr }

@.str.3 = private unnamed_addr constant [61 x i8] c"Requested frame size is not allowed. Using %d instead of %d\0A\00", align 1
@.str.4 = private unnamed_addr constant [64 x i8] c"Requested trellis value is not allowed. Using %d instead of %d\0A\00", align 1

; Function Attrs: alwaysinline nounwind willreturn memory(none) uwtable
define internal i32 @av_clip_c(i32 noundef %0, i32 noundef %1, i32 noundef %2) #4 {
  %4 = alloca i32, align 4
  %5 = alloca i32, align 4
  %6 = alloca i32, align 4
  %7 = alloca i32, align 4
  store i32 %0, ptr %5, align 4, !tbaa !38
  store i32 %1, ptr %6, align 4, !tbaa !38
  store i32 %2, ptr %7, align 4, !tbaa !38
  %8 = load i32, ptr %5, align 4, !tbaa !38
  %9 = load i32, ptr %6, align 4, !tbaa !38
  %10 = icmp slt i32 %8, %9
  br i1 %10, label %11, label %13

11:                                               ; preds = %3
  %12 = load i32, ptr %6, align 4, !tbaa !38
  store i32 %12, ptr %4, align 4
  br label %21

13:                                               ; preds = %3
  %14 = load i32, ptr %5, align 4, !tbaa !38
  %15 = load i32, ptr %7, align 4, !tbaa !38
  %16 = icmp sgt i32 %14, %15
  br i1 %16, label %17, label %19

17:                                               ; preds = %13
  %18 = load i32, ptr %7, align 4, !tbaa !38
  store i32 %18, ptr %4, align 4
  br label %21

19:                                               ; preds = %13
  %20 = load i32, ptr %5, align 4, !tbaa !38
  store i32 %20, ptr %4, align 4
  br label %21

21:                                               ; preds = %19, %17, %11
  %22 = load i32, ptr %4, align 4
  ret i32 %22
}

; Function Attrs: cold nounwind optsize uwtable
define internal i32 @g722_encode_init(ptr noundef %0) #0 {
  %2 = alloca i32, align 4
  %3 = alloca ptr, align 8
  %4 = alloca ptr, align 8
  %5 = alloca i32, align 4
  %6 = alloca i32, align 4
  %7 = alloca i32, align 4
  %8 = alloca i32, align 4
  %9 = alloca i32, align 4
  %10 = alloca i32, align 4
  store ptr %0, ptr %3, align 8, !tbaa !4
  call void @llvm.lifetime.start.p0(i64 8, ptr %4) #10
  %11 = load ptr, ptr %3, align 8, !tbaa !4
  %12 = getelementptr inbounds nuw %struct.AVCodecContext, ptr %11, i32 0, i32 6
  %13 = load ptr, ptr %12, align 8, !tbaa !9
  store ptr %13, ptr %4, align 8, !tbaa !29
  %14 = load ptr, ptr %4, align 8, !tbaa !29
  %15 = getelementptr inbounds nuw %struct.G722Context, ptr %14, i32 0, i32 4
  %16 = getelementptr inbounds [2 x %struct.G722Band], ptr %15, i64 0, i64 0
  %17 = getelementptr inbounds nuw %struct.G722Band, ptr %16, i32 0, i32 8
  store i16 8, ptr %17, align 2, !tbaa !31
  %18 = load ptr, ptr %4, align 8, !tbaa !29
  %19 = getelementptr inbounds nuw %struct.G722Context, ptr %18, i32 0, i32 4
  %20 = getelementptr inbounds [2 x %struct.G722Band], ptr %19, i64 0, i64 1
  %21 = getelementptr inbounds nuw %struct.G722Band, ptr %20, i32 0, i32 8
  store i16 2, ptr %21, align 2, !tbaa !31
  %22 = load ptr, ptr %4, align 8, !tbaa !29
  %23 = getelementptr inbounds nuw %struct.G722Context, ptr %22, i32 0, i32 3
  store i32 22, ptr %23, align 4, !tbaa !34
  %24 = load ptr, ptr %3, align 8, !tbaa !4
  %25 = getelementptr inbounds nuw %struct.AVCodecContext, ptr %24, i32 0, i32 72
  %26 = load i32, ptr %25, align 8, !tbaa !37
  %27 = icmp ne i32 %26, 0
  br i1 %27, label %28, label %67

28:                                               ; preds = %1
  %29 = load ptr, ptr %3, align 8, !tbaa !4
  %30 = getelementptr inbounds nuw %struct.AVCodecContext, ptr %29, i32 0, i32 72
  %31 = load i32, ptr %30, align 8, !tbaa !37
  %32 = and i32 %31, 1
  %33 = icmp ne i32 %32, 0
  br i1 %33, label %39, label %34

34:                                               ; preds = %28
  %35 = load ptr, ptr %3, align 8, !tbaa !4
  %36 = getelementptr inbounds nuw %struct.AVCodecContext, ptr %35, i32 0, i32 72
  %37 = load i32, ptr %36, align 8, !tbaa !37
  %38 = icmp sgt i32 %37, 32768
  br i1 %38, label %39, label %66

39:                                               ; preds = %34, %28
  call void @llvm.lifetime.start.p0(i64 4, ptr %5) #10
  %40 = load ptr, ptr %3, align 8, !tbaa !4
  %41 = getelementptr inbounds nuw %struct.AVCodecContext, ptr %40, i32 0, i32 72
  %42 = load i32, ptr %41, align 8, !tbaa !37
  %43 = icmp eq i32 %42, 1
  br i1 %43, label %44, label %45

44:                                               ; preds = %39
  store i32 2, ptr %5, align 4, !tbaa !38
  br label %57

45:                                               ; preds = %39
  %46 = load ptr, ptr %3, align 8, !tbaa !4
  %47 = getelementptr inbounds nuw %struct.AVCodecContext, ptr %46, i32 0, i32 72
  %48 = load i32, ptr %47, align 8, !tbaa !37
  %49 = icmp sgt i32 %48, 32768
  br i1 %49, label %50, label %51

50:                                               ; preds = %45
  store i32 32768, ptr %5, align 4, !tbaa !38
  br label %56

51:                                               ; preds = %45
  %52 = load ptr, ptr %3, align 8, !tbaa !4
  %53 = getelementptr inbounds nuw %struct.AVCodecContext, ptr %52, i32 0, i32 72
  %54 = load i32, ptr %53, align 8, !tbaa !37
  %55 = sub nsw i32 %54, 1
  store i32 %55, ptr %5, align 4, !tbaa !38
  br label %56

56:                                               ; preds = %51, %50
  br label %57

57:                                               ; preds = %56, %44
  %58 = load ptr, ptr %3, align 8, !tbaa !4
  %59 = load i32, ptr %5, align 4, !tbaa !38
  %60 = load ptr, ptr %3, align 8, !tbaa !4
  %61 = getelementptr inbounds nuw %struct.AVCodecContext, ptr %60, i32 0, i32 72
  %62 = load i32, ptr %61, align 8, !tbaa !37
  call void (ptr, i32, ptr, ...) @av_log(ptr noundef %58, i32 noundef 24, ptr noundef @.str.3, i32 noundef %59, i32 noundef %62)
  %63 = load i32, ptr %5, align 4, !tbaa !38
  %64 = load ptr, ptr %3, align 8, !tbaa !4
  %65 = getelementptr inbounds nuw %struct.AVCodecContext, ptr %64, i32 0, i32 72
  store i32 %63, ptr %65, align 8, !tbaa !37
  call void @llvm.lifetime.end.p0(i64 4, ptr %5) #10
  br label %66

66:                                               ; preds = %57, %34
  br label %70

67:                                               ; preds = %1
  %68 = load ptr, ptr %3, align 8, !tbaa !4
  %69 = getelementptr inbounds nuw %struct.AVCodecContext, ptr %68, i32 0, i32 72
  store i32 320, ptr %69, align 8, !tbaa !37
  br label %70

70:                                               ; preds = %67, %66
  %71 = load ptr, ptr %3, align 8, !tbaa !4
  %72 = getelementptr inbounds nuw %struct.AVCodecContext, ptr %71, i32 0, i32 77
  store i32 22, ptr %72, align 4, !tbaa !39
  %73 = load ptr, ptr %3, align 8, !tbaa !4
  %74 = getelementptr inbounds nuw %struct.AVCodecContext, ptr %73, i32 0, i32 97
  %75 = load i32, ptr %74, align 4, !tbaa !40
  %76 = icmp ne i32 %75, 0
  br i1 %76, label %77, label %176

77:                                               ; preds = %70
  %78 = load ptr, ptr %3, align 8, !tbaa !4
  %79 = getelementptr inbounds nuw %struct.AVCodecContext, ptr %78, i32 0, i32 97
  %80 = load i32, ptr %79, align 4, !tbaa !40
  %81 = icmp slt i32 %80, 0
  br i1 %81, label %87, label %82

82:                                               ; preds = %77
  %83 = load ptr, ptr %3, align 8, !tbaa !4
  %84 = getelementptr inbounds nuw %struct.AVCodecContext, ptr %83, i32 0, i32 97
  %85 = load i32, ptr %84, align 4, !tbaa !40
  %86 = icmp sgt i32 %85, 16
  br i1 %86, label %87, label %100

87:                                               ; preds = %82, %77
  call void @llvm.lifetime.start.p0(i64 4, ptr %6) #10
  %88 = load ptr, ptr %3, align 8, !tbaa !4
  %89 = getelementptr inbounds nuw %struct.AVCodecContext, ptr %88, i32 0, i32 97
  %90 = load i32, ptr %89, align 4, !tbaa !40
  %91 = call i32 @av_clip_c(i32 noundef %90, i32 noundef 0, i32 noundef 16) #11
  store i32 %91, ptr %6, align 4, !tbaa !38
  %92 = load ptr, ptr %3, align 8, !tbaa !4
  %93 = load i32, ptr %6, align 4, !tbaa !38
  %94 = load ptr, ptr %3, align 8, !tbaa !4
  %95 = getelementptr inbounds nuw %struct.AVCodecContext, ptr %94, i32 0, i32 97
  %96 = load i32, ptr %95, align 4, !tbaa !40
  call void (ptr, i32, ptr, ...) @av_log(ptr noundef %92, i32 noundef 24, ptr noundef @.str.4, i32 noundef %93, i32 noundef %96)
  %97 = load i32, ptr %6, align 4, !tbaa !38
  %98 = load ptr, ptr %3, align 8, !tbaa !4
  %99 = getelementptr inbounds nuw %struct.AVCodecContext, ptr %98, i32 0, i32 97
  store i32 %97, ptr %99, align 4, !tbaa !40
  call void @llvm.lifetime.end.p0(i64 4, ptr %6) #10
  br label %100

100:                                              ; preds = %87, %82
  %101 = load ptr, ptr %3, align 8, !tbaa !4
  %102 = getelementptr inbounds nuw %struct.AVCodecContext, ptr %101, i32 0, i32 97
  %103 = load i32, ptr %102, align 4, !tbaa !40
  %104 = icmp ne i32 %103, 0
  br i1 %104, label %105, label %175

105:                                              ; preds = %100
  call void @llvm.lifetime.start.p0(i64 4, ptr %7) #10
  %106 = load ptr, ptr %3, align 8, !tbaa !4
  %107 = getelementptr inbounds nuw %struct.AVCodecContext, ptr %106, i32 0, i32 97
  %108 = load i32, ptr %107, align 4, !tbaa !40
  %109 = shl i32 1, %108
  store i32 %109, ptr %7, align 4, !tbaa !38
  call void @llvm.lifetime.start.p0(i64 4, ptr %8) #10
  %110 = load i32, ptr %7, align 4, !tbaa !38
  %111 = mul nsw i32 %110, 128
  store i32 %111, ptr %8, align 4, !tbaa !38
  call void @llvm.lifetime.start.p0(i64 4, ptr %9) #10
  store i32 0, ptr %9, align 4, !tbaa !38
  br label %112

112:                                              ; preds = %166, %105
  %113 = load i32, ptr %9, align 4, !tbaa !38
  %114 = icmp slt i32 %113, 2
  br i1 %114, label %116, label %115

115:                                              ; preds = %112
  store i32 2, ptr %10, align 4
  br label %169

116:                                              ; preds = %112
  %117 = load i32, ptr %8, align 4, !tbaa !38
  %118 = sext i32 %117 to i64
  %119 = call noalias ptr @av_calloc(i64 noundef %118, i64 noundef 8)
  %120 = load ptr, ptr %4, align 8, !tbaa !29
  %121 = getelementptr inbounds nuw %struct.G722Context, ptr %120, i32 0, i32 7
  %122 = load i32, ptr %9, align 4, !tbaa !38
  %123 = sext i32 %122 to i64
  %124 = getelementptr inbounds [2 x ptr], ptr %121, i64 0, i64 %123
  store ptr %119, ptr %124, align 8, !tbaa !41
  %125 = load i32, ptr %7, align 4, !tbaa !38
  %126 = sext i32 %125 to i64
  %127 = call noalias ptr @av_calloc(i64 noundef %126, i64 noundef 128)
  %128 = load ptr, ptr %4, align 8, !tbaa !29
  %129 = getelementptr inbounds nuw %struct.G722Context, ptr %128, i32 0, i32 5
  %130 = load i32, ptr %9, align 4, !tbaa !38
  %131 = sext i32 %130 to i64
  %132 = getelementptr inbounds [2 x ptr], ptr %129, i64 0, i64 %131
  store ptr %127, ptr %132, align 8, !tbaa !43
  %133 = load i32, ptr %7, align 4, !tbaa !38
  %134 = sext i32 %133 to i64
  %135 = call noalias ptr @av_calloc(i64 noundef %134, i64 noundef 16)
  %136 = load ptr, ptr %4, align 8, !tbaa !29
  %137 = getelementptr inbounds nuw %struct.G722Context, ptr %136, i32 0, i32 6
  %138 = load i32, ptr %9, align 4, !tbaa !38
  %139 = sext i32 %138 to i64
  %140 = getelementptr inbounds [2 x ptr], ptr %137, i64 0, i64 %139
  store ptr %135, ptr %140, align 8, !tbaa !45
  %141 = load ptr, ptr %4, align 8, !tbaa !29
  %142 = getelementptr inbounds nuw %struct.G722Context, ptr %141, i32 0, i32 7
  %143 = load i32, ptr %9, align 4, !tbaa !38
  %144 = sext i32 %143 to i64
  %145 = getelementptr inbounds [2 x ptr], ptr %142, i64 0, i64 %144
  %146 = load ptr, ptr %145, align 8, !tbaa !41
  %147 = icmp ne ptr %146, null
  br i1 %147, label %148, label %164

148:                                              ; preds = %116
  %149 = load ptr, ptr %4, align 8, !tbaa !29
  %150 = getelementptr inbounds nuw %struct.G722Context, ptr %149, i32 0, i32 5
  %151 = load i32, ptr %9, align 4, !tbaa !38
  %152 = sext i32 %151 to i64
  %153 = getelementptr inbounds [2 x ptr], ptr %150, i64 0, i64 %152
  %154 = load ptr, ptr %153, align 8, !tbaa !43
  %155 = icmp ne ptr %154, null
  br i1 %155, label %156, label %164

156:                                              ; preds = %148
  %157 = load ptr, ptr %4, align 8, !tbaa !29
  %158 = getelementptr inbounds nuw %struct.G722Context, ptr %157, i32 0, i32 6
  %159 = load i32, ptr %9, align 4, !tbaa !38
  %160 = sext i32 %159 to i64
  %161 = getelementptr inbounds [2 x ptr], ptr %158, i64 0, i64 %160
  %162 = load ptr, ptr %161, align 8, !tbaa !45
  %163 = icmp ne ptr %162, null
  br i1 %163, label %165, label %164

164:                                              ; preds = %156, %148, %116
  store i32 -12, ptr %2, align 4
  store i32 1, ptr %10, align 4
  br label %169

165:                                              ; preds = %156
  br label %166

166:                                              ; preds = %165
  %167 = load i32, ptr %9, align 4, !tbaa !38
  %168 = add nsw i32 %167, 1
  store i32 %168, ptr %9, align 4, !tbaa !38
  br label %112, !llvm.loop !47

169:                                              ; preds = %164, %115
  call void @llvm.lifetime.end.p0(i64 4, ptr %9) #10
  %170 = load i32, ptr %10, align 4
  switch i32 %170, label %172 [
    i32 2, label %171
  ]

171:                                              ; preds = %169
  store i32 0, ptr %10, align 4
  br label %172

172:                                              ; preds = %171, %169
  call void @llvm.lifetime.end.p0(i64 4, ptr %8) #10
  call void @llvm.lifetime.end.p0(i64 4, ptr %7) #10
  %173 = load i32, ptr %10, align 4
  switch i32 %173, label %179 [
    i32 0, label %174
  ]

174:                                              ; preds = %172
  br label %175

175:                                              ; preds = %174, %100
  br label %176

176:                                              ; preds = %175, %70
  %177 = load ptr, ptr %4, align 8, !tbaa !29
  %178 = getelementptr inbounds nuw %struct.G722Context, ptr %177, i32 0, i32 8
  call void @ff_g722dsp_init(ptr noundef %178)
  store i32 0, ptr %2, align 4
  store i32 1, ptr %10, align 4
  br label %179

179:                                              ; preds = %176, %172
  call void @llvm.lifetime.end.p0(i64 8, ptr %4) #10
  %180 = load i32, ptr %2, align 4
  ret i32 %180
}