; Function Attrs: cold nounwind optsize uwtable
define internal range(i32 -12, 1) i32 @g722_encode_init(ptr noundef %0) #0 {
  %2 = getelementptr inbounds nuw i8, ptr %0, i64 32
  %3 = load ptr, ptr %2, align 8, !tbaa !4
  %4 = getelementptr inbounds nuw i8, ptr %3, i64 2118
  store i16 8, ptr %4, align 2, !tbaa !27
  %5 = getelementptr inbounds nuw i8, ptr %3, i64 2174
  store i16 2, ptr %5, align 2, !tbaa !27
  %6 = getelementptr inbounds nuw i8, ptr %3, i64 2060
  store i32 22, ptr %6, align 4, !tbaa !30
  %7 = getelementptr inbounds nuw i8, ptr %0, i64 376
  %8 = load i32, ptr %7, align 8, !tbaa !33
  %.not = icmp eq i32 %8, 0
  br i1 %.not, label %.sink.split, label %9

9:                                                ; preds = %1
  %10 = and i32 %8, 1
  %.not57 = icmp ne i32 %10, 0
  %11 = icmp sgt i32 %8, 32768
  %or.cond = or i1 %11, %.not57
  br i1 %or.cond, label %12, label %15

12:                                               ; preds = %9
  %13 = icmp eq i32 %8, 1
  %14 = tail call i32 @llvm.smin.i32(i32 %8, i32 32769)
  %spec.select = add i32 %14, -1
  %.052 = select i1 %13, i32 2, i32 %spec.select
  tail call void (ptr, i32, ptr, ...) @av_log(ptr noundef nonnull %0, i32 noundef 24, ptr noundef nonnull @.str.3, i32 noundef %.052, i32 noundef %8) #8
  br label %.sink.split

.sink.split:                                      ; preds = %1, %12
  %.052.sink = phi i32 [ %.052, %12 ], [ 320, %1 ]
  store i32 %.052.sink, ptr %7, align 8, !tbaa !33
  br label %15

15:                                               ; preds = %.sink.split, %9
  %16 = getelementptr inbounds nuw i8, ptr %0, i64 396
  store i32 22, ptr %16, align 4, !tbaa !34
  %17 = getelementptr inbounds nuw i8, ptr %0, i64 492
  %18 = load i32, ptr %17, align 4, !tbaa !35
  %.not58 = icmp eq i32 %18, 0
  br i1 %.not58, label %.critedge, label %19

19:                                               ; preds = %15
  %or.cond63 = icmp ugt i32 %18, 16
  br i1 %or.cond63, label %thread-pre-split, label %thread-pre-split.thread

thread-pre-split:                                 ; preds = %19
  %20 = tail call i32 @llvm.smax.i32(i32 %18, i32 0)
  %21 = tail call i32 @llvm.umin.i32(i32 %20, i32 16)
  tail call void (ptr, i32, ptr, ...) @av_log(ptr noundef nonnull %0, i32 noundef 24, ptr noundef nonnull @.str.4, i32 noundef %21, i32 noundef %18) #8
  store i32 %21, ptr %17, align 4, !tbaa !35
  %.not59 = icmp eq i32 %20, 0
  br i1 %.not59, label %.critedge, label %thread-pre-split.thread

thread-pre-split.thread:                          ; preds = %19, %thread-pre-split
  %22 = phi i32 [ %21, %thread-pre-split ], [ %18, %19 ]
  %23 = shl nuw nsw i32 1, %22
  %24 = shl nuw nsw i32 128, %22
  %25 = zext nneg i32 %24 to i64
  %26 = getelementptr inbounds nuw i8, ptr %3, i64 2208
  %27 = zext nneg i32 %23 to i64
  %28 = getelementptr inbounds nuw i8, ptr %3, i64 2176
  %29 = getelementptr inbounds nuw i8, ptr %3, i64 2192
  br label %31

30:                                               ; preds = %39
  br i1 %.not66, label %31, label %.critedge, !llvm.loop !36

31:                                               ; preds = %thread-pre-split.thread, %30
  %.not66 = phi i1 [ true, %thread-pre-split.thread ], [ false, %30 ]
  %indvars.iv = phi i64 [ 0, %thread-pre-split.thread ], [ 1, %30 ]
  %32 = tail call noalias ptr @av_calloc(i64 noundef %25, i64 noundef 8) #8
  %33 = getelementptr inbounds nuw [2 x ptr], ptr %26, i64 0, i64 %indvars.iv
  store ptr %32, ptr %33, align 8, !tbaa !38
  %34 = tail call noalias ptr @av_calloc(i64 noundef %27, i64 noundef 128) #8
  %35 = getelementptr inbounds nuw [2 x ptr], ptr %28, i64 0, i64 %indvars.iv
  store ptr %34, ptr %35, align 8, !tbaa !40
  %36 = tail call noalias ptr @av_calloc(i64 noundef %27, i64 noundef 16) #8
  %37 = getelementptr inbounds nuw [2 x ptr], ptr %29, i64 0, i64 %indvars.iv
  store ptr %36, ptr %37, align 8, !tbaa !42
  %38 = load ptr, ptr %33, align 8, !tbaa !38
  %.not60 = icmp eq ptr %38, null
  br i1 %.not60, label %.loopexit, label %39

39:                                               ; preds = %31
  %40 = load ptr, ptr %35, align 8, !tbaa !40
  %.not61 = icmp eq ptr %40, null
  %.not62 = icmp eq ptr %36, null
  %or.cond64 = select i1 %.not61, i1 true, i1 %.not62
  br i1 %or.cond64, label %.loopexit, label %30

.critedge:                                        ; preds = %30, %thread-pre-split, %15
  %41 = getelementptr inbounds nuw i8, ptr %3, i64 2224
  tail call void @ff_g722dsp_init(ptr noundef nonnull %41) #8
  br label %.loopexit

.loopexit:                                        ; preds = %39, %31, %.critedge
  %.1 = phi i32 [ 0, %.critedge ], [ -12, %31 ], [ -12, %39 ]
  ret i32 %.1
}